target datalayout = "e-m:e-p270:32:32-p271:32:32-p272:64:64-i64:64-i128:128-f80:128-n8:16:32:64-S128"
target triple = "x86_64-unknown-linux-gnu"

%"class.icu_75::UObject" = type { ptr }
%"class.icu_75::MeasureFormat" = type { %"class.icu_75::Format.base", ptr, ptr, ptr, i32, ptr }
%"class.icu_75::Format.base" = type <{ %"class.icu_75::UObject", [157 x i8], [157 x i8] }>

; Function Attrs: mustprogress uwtable
define linkonce_odr void @_ZN6icu_7512SharedObject7copyPtrINS_17SharedPluralRulesEEEvPKT_RS5_(ptr noundef %src, ptr noundef nonnull align 8 dereferenceable(8) %dest) #1 comdat align 2 {
entry:
  %src.addr = alloca ptr, align 8
  %dest.addr = alloca ptr, align 8
  store ptr %src, ptr %src.addr, align 8
  store ptr %dest, ptr %dest.addr, align 8
  %0 = load ptr, ptr %src.addr, align 8
  %1 = load ptr, ptr %dest.addr, align 8
  %2 = load ptr, ptr %1, align 8
  %cmp = icmp ne ptr %0, %2
  br i1 %cmp, label %if.then, label %if.end6

if.then:                                          ; preds = %entry
  %3 = load ptr, ptr %dest.addr, align 8
  %4 = load ptr, ptr %3, align 8
  %cmp1 = icmp ne ptr %4, null
  br i1 %cmp1, label %if.then2, label %if.end

if.then2:                                         ; preds = %if.then
  %5 = load ptr, ptr %dest.addr, align 8
  %6 = load ptr, ptr %5, align 8
  call void @_ZNK6icu_7512SharedObject9removeRefEv(ptr noundef nonnull align 8 dereferenceable(24) %6)
  br label %if.end

if.end:                                           ; preds = %if.then2, %if.then
  %7 = load ptr, ptr %src.addr, align 8
  %8 = load ptr, ptr %dest.addr, align 8
  store ptr %7, ptr %8, align 8
  %9 = load ptr, ptr %src.addr, align 8
  %cmp3 = icmp ne ptr %9, null
  br i1 %cmp3, label %if.then4, label %if.end5

if.then4:                                         ; preds = %if.end
  %10 = load ptr, ptr %src.addr, align 8
  call void @_ZNK6icu_7512SharedObject6addRefEv(ptr noundef nonnull align 8 dereferenceable(24) %10)
  br label %if.end5

if.end5:                                          ; preds = %if.then4, %if.end
  br label %if.end6

if.end6:                                          ; preds = %if.end5, %entry
  ret void
}

; Function Attrs: mustprogress uwtable
define linkonce_odr void @_ZN6icu_7512SharedObject7copyPtrINS_18SharedNumberFormatEEEvPKT_RS5_(ptr noundef %src, ptr noundef nonnull align 8 dereferenceable(8) %dest) #1 comdat align 2 {
entry:
  %src.addr = alloca ptr, align 8
  %dest.addr = alloca ptr, align 8
  store ptr %src, ptr %src.addr, align 8
  store ptr %dest, ptr %dest.addr, align 8
  %0 = load ptr, ptr %src.addr, align 8
  %1 = load ptr, ptr %dest.addr, align 8
  %2 = load ptr, ptr %1, align 8
  %cmp = icmp ne ptr %0, %2
  br i1 %cmp, label %if.then, label %if.end6

if.then:                                          ; preds = %entry
  %3 = load ptr, ptr %dest.addr, align 8
  %4 = load ptr, ptr %3, align 8
  %cmp1 = icmp ne ptr %4, null
  br i1 %cmp1, label %if.then2, label %if.end

if.then2:                                         ; preds = %if.then
  %5 = load ptr, ptr %dest.addr, align 8
  %6 = load ptr, ptr %5, align 8
  call void @_ZNK6icu_7512SharedObject9removeRefEv(ptr noundef nonnull align 8 dereferenceable(24) %6)
  br label %if.end

if.end:                                           ; preds = %if.then2, %if.then
  %7 = load ptr, ptr %src.addr, align 8
  %8 = load ptr, ptr %dest.addr, align 8
  store ptr %7, ptr %8, align 8
  %9 = load ptr, ptr %src.addr, align 8
  %cmp3 = icmp ne ptr %9, null
  br i1 %cmp3, label %if.then4, label %if.end5

if.then4:                                         ; preds = %if.end
  %10 = load ptr, ptr %src.addr, align 8
  call void @_ZNK6icu_7512SharedObject6addRefEv(ptr noundef nonnull align 8 dereferenceable(24) %10)
  br label %if.end5

if.end5:                                          ; preds = %if.then4, %if.end
  br label %if.end6

if.end6:                                          ; preds = %if.end5, %entry
  ret void
}

; Function Attrs: mustprogress uwtable
define linkonce_odr void @_ZN6icu_7512SharedObject7copyPtrINS_22MeasureFormatCacheDataEEEvPKT_RS5_(ptr noundef %src, ptr noundef nonnull align 8 dereferenceable(8) %dest) #1 comdat align 2 {
entry:
  %src.addr = alloca ptr, align 8
  %dest.addr = alloca ptr, align 8
  store ptr %src, ptr %src.addr, align 8
  store ptr %dest, ptr %dest.addr, align 8
  %0 = load ptr, ptr %src.addr, align 8
  %1 = load ptr, ptr %dest.addr, align 8
  %2 = load ptr, ptr %1, align 8
  %cmp = icmp ne ptr %0, %2
  br i1 %cmp, label %if.then, label %if.end6

if.then:                                          ; preds = %entry
  %3 = load ptr, ptr %dest.addr, align 8
  %4 = load ptr, ptr %3, align 8
  %cmp1 = icmp ne ptr %4, null
  br i1 %cmp1, label %if.then2, label %if.end

if.then2:                                         ; preds = %if.then
  %5 = load ptr, ptr %dest.addr, align 8
  %6 = load ptr, ptr %5, align 8
  call void @_ZNK6icu_7512SharedObject9removeRefEv(ptr noundef nonnull align 8 dereferenceable(24) %6)
  br label %if.end

if.end:                                           ; preds = %if.then2, %if.then
  %7 = load ptr, ptr %src.addr, align 8
  %8 = load ptr, ptr %dest.addr, align 8
  store ptr %7, ptr %8, align 8
  %9 = load ptr, ptr %src.addr, align 8
  %cmp3 = icmp ne ptr %9, null
  br i1 %cmp3, label %if.then4, label %if.end5

if.then4:                                         ; preds = %if.end
  %10 = load ptr, ptr %src.addr, align 8
  call void @_ZNK6icu_7512SharedObject6addRefEv(ptr noundef nonnull align 8 dereferenceable(24) %10)
  br label %if.end5

if.end5:                                          ; preds = %if.then4, %if.end
  br label %if.end6

if.end6:                                          ; preds = %if.end5, %entry
  ret void
}

; Function Attrs: mustprogress uwtable
define noundef nonnull align 8 dereferenceable(368) ptr @_ZN6icu_7513MeasureFormataSERKS0_(ptr noundef nonnull align 8 dereferenceable(368) %this, ptr noundef nonnull align 8 dereferenceable(368) %other) #1 align 2 personality ptr @__gxx_personality_v0 {
entry:
  %retval = alloca ptr, align 8
  %this.addr = alloca ptr, align 8
  %other.addr = alloca ptr, align 8
  %saved-rvalue = alloca ptr, align 8
  %cleanup.cond = alloca i1, align 1
  %exn.slot = alloca ptr, align 8
  %ehselector.slot = alloca i32, align 4
  store ptr %this, ptr %this.addr, align 8
  store ptr %other, ptr %other.addr, align 8
  %this1 = load ptr, ptr %this.addr, align 8
  %0 = load ptr, ptr %other.addr, align 8
  %cmp = icmp eq ptr %this1, %0
  br i1 %cmp, label %if.then, label %if.end

if.then:                                          ; preds = %entry
  store ptr %this1, ptr %retval, align 8
  br label %return

if.end:                                           ; preds = %entry
  %1 = load ptr, ptr %other.addr, align 8
  %call = call noundef nonnull align 8 dereferenceable(322) ptr @_ZN6icu_756FormataSERKS0_(ptr noundef nonnull align 8 dereferenceable(322) %this1, ptr noundef nonnull align 8 dereferenceable(322) %1)
  %2 = load ptr, ptr %other.addr, align 8
  %cache = getelementptr inbounds %"class.icu_75::MeasureFormat", ptr %2, i32 0, i32 1
  %3 = load ptr, ptr %cache, align 8
  %cache2 = getelementptr inbounds %"class.icu_75::MeasureFormat", ptr %this1, i32 0, i32 1
  call void @_ZN6icu_7512SharedObject7copyPtrINS_22MeasureFormatCacheDataEEEvPKT_RS5_(ptr noundef %3, ptr noundef nonnull align 8 dereferenceable(8) %cache2)
  %4 = load ptr, ptr %other.addr, align 8
  %numberFormat = getelementptr inbounds %"class.icu_75::MeasureFormat", ptr %4, i32 0, i32 2
  %5 = load ptr, ptr %numberFormat, align 8
  %numberFormat3 = getelementptr inbounds %"class.icu_75::MeasureFormat", ptr %this1, i32 0, i32 2
  call void @_ZN6icu_7512SharedObject7copyPtrINS_18SharedNumberFormatEEEvPKT_RS5_(ptr noundef %5, ptr noundef nonnull align 8 dereferenceable(8) %numberFormat3)
  %6 = load ptr, ptr %other.addr, align 8
  %pluralRules = getelementptr inbounds %"class.icu_75::MeasureFormat", ptr %6, i32 0, i32 3
  %7 = load ptr, ptr %pluralRules, align 8
  %pluralRules4 = getelementptr inbounds %"class.icu_75::MeasureFormat", ptr %this1, i32 0, i32 3
  call void @_ZN6icu_7512SharedObject7copyPtrINS_17SharedPluralRulesEEEvPKT_RS5_(ptr noundef %7, ptr noundef nonnull align 8 dereferenceable(8) %pluralRules4)
  %8 = load ptr, ptr %other.addr, align 8
  %fWidth = getelementptr inbounds %"class.icu_75::MeasureFormat", ptr %8, i32 0, i32 4
  %9 = load i32, ptr %fWidth, align 8
  %fWidth5 = getelementptr inbounds %"class.icu_75::MeasureFormat", ptr %this1, i32 0, i32 4
  store i32 %9, ptr %fWidth5, align 8
  %listFormatter = getelementptr inbounds %"class.icu_75::MeasureFormat", ptr %this1, i32 0, i32 5
  %10 = load ptr, ptr %listFormatter, align 8
  %isnull = icmp eq ptr %10, null
  br i1 %isnull, label %delete.end, label %delete.notnull

delete.notnull:                                   ; preds = %if.end
  %vtable = load ptr, ptr %10, align 8
  %vfn = getelementptr inbounds ptr, ptr %vtable, i64 1
  %11 = load ptr, ptr %vfn, align 8
  call void %11(ptr noundef nonnull align 8 dereferenceable(24) %10) #12
  br label %delete.end

delete.end:                                       ; preds = %delete.notnull, %if.end
  %12 = load ptr, ptr %other.addr, align 8
  %listFormatter6 = getelementptr inbounds %"class.icu_75::MeasureFormat", ptr %12, i32 0, i32 5
  %13 = load ptr, ptr %listFormatter6, align 8
  %cmp7 = icmp ne ptr %13, null
  br i1 %cmp7, label %if.then8, label %if.else

if.then8:                                         ; preds = %delete.end
  %call9 = call noundef ptr @_ZN6icu_757UMemorynwEm(i64 noundef 24) #12
  %new.isnull = icmp eq ptr %call9, null
  store i1 false, ptr %cleanup.cond, align 1
  br i1 %new.isnull, label %new.cont, label %new.notnull

new.notnull:                                      ; preds = %if.then8
  store ptr %call9, ptr %saved-rvalue, align 8
  store i1 true, ptr %cleanup.cond, align 1
  %14 = load ptr, ptr %other.addr, align 8
  %listFormatter10 = getelementptr inbounds %"class.icu_75::MeasureFormat", ptr %14, i32 0, i32 5
  %15 = load ptr, ptr %listFormatter10, align 8
  invoke void @_ZN6icu_7513ListFormatterC1ERKS0_(ptr noundef nonnull align 8 dereferenceable(24) %call9, ptr noundef nonnull align 8 dereferenceable(24) %15)
          to label %invoke.cont unwind label %lpad

invoke.cont:                                      ; preds = %new.notnull
  br label %new.cont

new.cont:                                         ; preds = %invoke.cont, %if.then8
  %16 = phi ptr [ %call9, %invoke.cont ], [ null, %if.then8 ]
  %listFormatter11 = getelementptr inbounds %"class.icu_75::MeasureFormat", ptr %this1, i32 0, i32 5
  store ptr %16, ptr %listFormatter11, align 8
  br label %if.end13

lpad:                                             ; preds = %new.notnull
  %17 = landingpad { ptr, i32 }
          cleanup
  %18 = extractvalue { ptr, i32 } %17, 0
  store ptr %18, ptr %exn.slot, align 8
  %19 = extractvalue { ptr, i32 } %17, 1
  store i32 %19, ptr %ehselector.slot, align 4
  %cleanup.is_active = load i1, ptr %cleanup.cond, align 1
  br i1 %cleanup.is_active, label %cleanup.action, label %cleanup.done

cleanup.action:                                   ; preds = %lpad
  %20 = load ptr, ptr %saved-rvalue, align 8
  call void @_ZN6icu_757UMemorydlEPv(ptr noundef %20) #12
  br label %cleanup.done

cleanup.done:                                     ; preds = %cleanup.action, %lpad
  br label %eh.resume

if.else:                                          ; preds = %delete.end
  %listFormatter12 = getelementptr inbounds %"class.icu_75::MeasureFormat", ptr %this1, i32 0, i32 5
  store ptr null, ptr %listFormatter12, align 8
  br label %if.end13

if.end13:                                         ; preds = %if.else, %new.cont
  store ptr %this1, ptr %retval, align 8
  br label %return

return:                                           ; preds = %if.end13, %if.then
  %21 = load ptr, ptr %retval, align 8
  ret ptr %21

eh.resume:                                        ; preds = %cleanup.done
  %exn = load ptr, ptr %exn.slot, align 8
  %sel = load i32, ptr %ehselector.slot, align 4
  %lpad.val = insertvalue { ptr, i32 } poison, ptr %exn, 0
  %lpad.val14 = insertvalue { ptr, i32 } %lpad.val, i32 %sel, 1
  resume { ptr, i32 } %lpad.val14
}