; Function Attrs: mustprogress uwtable
define noundef nonnull align 8 dereferenceable(368) ptr @_ZN6icu_7513MeasureFormataSERKS0_(ptr noundef nonnull returned align 8 dereferenceable(368) %this, ptr noundef nonnull align 8 dereferenceable(368) %other) local_unnamed_addr #1 align 2 personality ptr @__gxx_personality_v0 {
entry:
  %cmp = icmp eq ptr %this, %other
  br i1 %cmp, label %return, label %if.end

if.end:                                           ; preds = %entry
  %call = tail call noundef nonnull align 8 dereferenceable(322) ptr @_ZN6icu_756FormataSERKS0_(ptr noundef nonnull align 8 dereferenceable(322) %this, ptr noundef nonnull align 8 dereferenceable(322) %other)
  %cache = getelementptr inbounds i8, ptr %other, i64 328
  %0 = load ptr, ptr %cache, align 8
  %cache2 = getelementptr inbounds i8, ptr %this, i64 328
  %1 = load ptr, ptr %cache2, align 8
  %cmp.not.i = icmp eq ptr %1, %0
  br i1 %cmp.not.i, label %_ZN6icu_7512SharedObject7copyPtrINS_22MeasureFormatCacheDataEEEvPKT_RS5_.exit, label %if.then.i

if.then.i:                                        ; preds = %if.end
  %cmp1.not.i = icmp eq ptr %1, null
  br i1 %cmp1.not.i, label %if.end.i, label %if.then2.i

if.then2.i:                                       ; preds = %if.then.i
  tail call void @_ZNK6icu_7512SharedObject9removeRefEv(ptr noundef nonnull align 8 dereferenceable(24) %1)
  br label %if.end.i

if.end.i:                                         ; preds = %if.then2.i, %if.then.i
  store ptr %0, ptr %cache2, align 8
  %cmp3.not.i = icmp eq ptr %0, null
  br i1 %cmp3.not.i, label %_ZN6icu_7512SharedObject7copyPtrINS_22MeasureFormatCacheDataEEEvPKT_RS5_.exit, label %if.then4.i

if.then4.i:                                       ; preds = %if.end.i
  tail call void @_ZNK6icu_7512SharedObject6addRefEv(ptr noundef nonnull align 8 dereferenceable(24) %0)
  br label %_ZN6icu_7512SharedObject7copyPtrINS_22MeasureFormatCacheDataEEEvPKT_RS5_.exit

_ZN6icu_7512SharedObject7copyPtrINS_22MeasureFormatCacheDataEEEvPKT_RS5_.exit: ; preds = %if.end, %if.end.i, %if.then4.i
  %numberFormat = getelementptr inbounds i8, ptr %other, i64 336
  %2 = load ptr, ptr %numberFormat, align 8
  %numberFormat3 = getelementptr inbounds i8, ptr %this, i64 336
  %3 = load ptr, ptr %numberFormat3, align 8
  %cmp.not.i8 = icmp eq ptr %3, %2
  br i1 %cmp.not.i8, label %_ZN6icu_7512SharedObject7copyPtrINS_18SharedNumberFormatEEEvPKT_RS5_.exit, label %if.then.i9

if.then.i9:                                       ; preds = %_ZN6icu_7512SharedObject7copyPtrINS_22MeasureFormatCacheDataEEEvPKT_RS5_.exit
  %cmp1.not.i10 = icmp eq ptr %3, null
  br i1 %cmp1.not.i10, label %if.end.i12, label %if.then2.i11

if.then2.i11:                                     ; preds = %if.then.i9
  tail call void @_ZNK6icu_7512SharedObject9removeRefEv(ptr noundef nonnull align 8 dereferenceable(24) %3)
  br label %if.end.i12

if.end.i12:                                       ; preds = %if.then2.i11, %if.then.i9
  store ptr %2, ptr %numberFormat3, align 8
  %cmp3.not.i13 = icmp eq ptr %2, null
  br i1 %cmp3.not.i13, label %_ZN6icu_7512SharedObject7copyPtrINS_18SharedNumberFormatEEEvPKT_RS5_.exit, label %if.then4.i14

if.then4.i14:                                     ; preds = %if.end.i12
  tail call void @_ZNK6icu_7512SharedObject6addRefEv(ptr noundef nonnull align 8 dereferenceable(24) %2)
  br label %_ZN6icu_7512SharedObject7copyPtrINS_18SharedNumberFormatEEEvPKT_RS5_.exit

_ZN6icu_7512SharedObject7copyPtrINS_18SharedNumberFormatEEEvPKT_RS5_.exit: ; preds = %_ZN6icu_7512SharedObject7copyPtrINS_22MeasureFormatCacheDataEEEvPKT_RS5_.exit, %if.end.i12, %if.then4.i14
  %pluralRules = getelementptr inbounds i8, ptr %other, i64 344
  %4 = load ptr, ptr %pluralRules, align 8
  %pluralRules4 = getelementptr inbounds i8, ptr %this, i64 344
  %5 = load ptr, ptr %pluralRules4, align 8
  %cmp.not.i15 = icmp eq ptr %5, %4
  br i1 %cmp.not.i15, label %_ZN6icu_7512SharedObject7copyPtrINS_17SharedPluralRulesEEEvPKT_RS5_.exit, label %if.then.i16

if.then.i16:                                      ; preds = %_ZN6icu_7512SharedObject7copyPtrINS_18SharedNumberFormatEEEvPKT_RS5_.exit
  %cmp1.not.i17 = icmp eq ptr %5, null
  br i1 %cmp1.not.i17, label %if.end.i19, label %if.then2.i18

if.then2.i18:                                     ; preds = %if.then.i16
  tail call void @_ZNK6icu_7512SharedObject9removeRefEv(ptr noundef nonnull align 8 dereferenceable(24) %5)
  br label %if.end.i19

if.end.i19:                                       ; preds = %if.then2.i18, %if.then.i16
  store ptr %4, ptr %pluralRules4, align 8
  %cmp3.not.i20 = icmp eq ptr %4, null
  br i1 %cmp3.not.i20, label %_ZN6icu_7512SharedObject7copyPtrINS_17SharedPluralRulesEEEvPKT_RS5_.exit, label %if.then4.i21

if.then4.i21:                                     ; preds = %if.end.i19
  tail call void @_ZNK6icu_7512SharedObject6addRefEv(ptr noundef nonnull align 8 dereferenceable(24) %4)
  br label %_ZN6icu_7512SharedObject7copyPtrINS_17SharedPluralRulesEEEvPKT_RS5_.exit

_ZN6icu_7512SharedObject7copyPtrINS_17SharedPluralRulesEEEvPKT_RS5_.exit: ; preds = %_ZN6icu_7512SharedObject7copyPtrINS_18SharedNumberFormatEEEvPKT_RS5_.exit, %if.end.i19, %if.then4.i21
  %fWidth = getelementptr inbounds i8, ptr %other, i64 352
  %6 = load i32, ptr %fWidth, align 8
  %fWidth5 = getelementptr inbounds i8, ptr %this, i64 352
  store i32 %6, ptr %fWidth5, align 8
  %listFormatter = getelementptr inbounds i8, ptr %this, i64 360
  %7 = load ptr, ptr %listFormatter, align 8
  %isnull = icmp eq ptr %7, null
  br i1 %isnull, label %delete.end, label %delete.notnull

delete.notnull:                                   ; preds = %_ZN6icu_7512SharedObject7copyPtrINS_17SharedPluralRulesEEEvPKT_RS5_.exit
  %vtable = load ptr, ptr %7, align 8
  %vfn = getelementptr inbounds i8, ptr %vtable, i64 8
  %8 = load ptr, ptr %vfn, align 8
  tail call void %8(ptr noundef nonnull align 8 dereferenceable(24) %7) #16
  br label %delete.end

delete.end:                                       ; preds = %delete.notnull, %_ZN6icu_7512SharedObject7copyPtrINS_17SharedPluralRulesEEEvPKT_RS5_.exit
  %listFormatter6 = getelementptr inbounds i8, ptr %other, i64 360
  %9 = load ptr, ptr %listFormatter6, align 8
  %cmp7.not = icmp eq ptr %9, null
  br i1 %cmp7.not, label %if.end13, label %if.then8

if.then8:                                         ; preds = %delete.end
  %call9 = tail call noundef ptr @_ZN6icu_757UMemorynwEm(i64 noundef 24) #16
  %new.isnull = icmp eq ptr %call9, null
  br i1 %new.isnull, label %if.end13, label %new.notnull

new.notnull:                                      ; preds = %if.then8
  %10 = load ptr, ptr %listFormatter6, align 8
  invoke void @_ZN6icu_7513ListFormatterC1ERKS0_(ptr noundef nonnull align 8 dereferenceable(24) %call9, ptr noundef nonnull align 8 dereferenceable(24) %10)
          to label %if.end13 unwind label %lpad

lpad:                                             ; preds = %new.notnull
  %11 = landingpad { ptr, i32 }
          cleanup
  tail call void @_ZN6icu_757UMemorydlEPv(ptr noundef nonnull %call9) #16
  resume { ptr, i32 } %11

if.end13:                                         ; preds = %delete.end, %if.then8, %new.notnull
  %storemerge = phi ptr [ null, %if.then8 ], [ %call9, %new.notnull ], [ null, %delete.end ]
  store ptr %storemerge, ptr %listFormatter, align 8
  br label %return

return:                                           ; preds = %entry, %if.end13
  ret ptr %this
}